target datalayout = "e-m:e-p270:32:32-p271:32:32-p272:64:64-i64:64-i128:128-f80:128-n8:16:32:64-S128"
target triple = "x86_64-pc-linux-gnu"

%struct._packet_info = type { ptr, ptr, i32, i32, %struct.nstime_t, %struct.nstime_t, %struct.nstime_t, i8, ptr, ptr, ptr, ptr, %struct._address, %struct._address, %struct._address, %struct._address, %struct._address, %struct._address, i32, ptr, i8, [3 x i8], %struct.anon, i32, i32, i32, i32, ptr, i8, ptr, ptr, i16, i16, i32, i32, i16, i32, i32, ptr, ptr, ptr, i8, i8, i16, i16, i16, i32, i16, i16, ptr, ptr, ptr, ptr, ptr, i32, i32 }
%struct.nstime_t = type { i64, i32 }
%struct._address = type { i32, i32, ptr, ptr }
%struct.anon = type { i8, [3 x i8] }
%struct.pcp_conv_info_t = type { ptr, ptr, i32, i32, i8 }

@hf_pcp_pmid = internal global i32 0, align 4
@hf_pcp_pmid_flag = internal global i32 0, align 4
@hf_pcp_pmid_domain = internal global i32 0, align 4
@hf_pcp_pmid_cluster = internal global i32 0, align 4
@hf_pcp_pmid_item = internal global i32 0, align 4
@ett_pcp = internal global i32 0, align 4
@proto_pcp = internal global i32 0, align 4
@.str.402 = private unnamed_addr constant [29 x i8] c"%s:%u: failed assertion \22%s\22\00", align 1
@.str.403 = private unnamed_addr constant [29 x i8] c"epan/dissectors/packet-pcp.c\00", align 1
@.str.404 = private unnamed_addr constant [13 x i8] c"conversation\00", align 1
@.str.405 = private unnamed_addr constant [14 x i8] c"pcp_conv_info\00", align 1
@.str.411 = private unnamed_addr constant [6 x i8] c" (%s)\00", align 1
@.str.412 = private unnamed_addr constant [20 x i8] c"Metric name unknown\00", align 1

; Function Attrs: null_pointer_is_valid sspstrong uwtable
define internal ptr @get_pcp_conversation_info(ptr noundef %0) #0 {
  %2 = alloca ptr, align 8
  %3 = alloca ptr, align 8
  %4 = alloca ptr, align 8
  store ptr %0, ptr %2, align 8
  call void @llvm.lifetime.start.p0(i64 8, ptr %3) #8
  call void @llvm.lifetime.start.p0(i64 8, ptr %4) #8
  %5 = load ptr, ptr %2, align 8
  %6 = call ptr @find_conversation_pinfo(ptr noundef %5, i32 noundef 0)
  store ptr %6, ptr %3, align 8
  %7 = load ptr, ptr %3, align 8
  %8 = icmp ne ptr %7, null
  br i1 %8, label %9, label %10

9:                                                ; preds = %1
  br label %12

10:                                               ; preds = %1
  call void (ptr, ...) @proto_report_dissector_bug(ptr noundef @.str.402, ptr noundef @.str.403, i32 noundef 607, ptr noundef @.str.404) #10
  unreachable

11:                                               ; No predecessors!
  br label %12

12:                                               ; preds = %11, %9
  %13 = load ptr, ptr %3, align 8
  %14 = load i32, ptr @proto_pcp, align 4
  %15 = call ptr @conversation_get_proto_data(ptr noundef %13, i32 noundef %14)
  store ptr %15, ptr %4, align 8
  %16 = load ptr, ptr %4, align 8
  %17 = icmp ne ptr %16, null
  br i1 %17, label %18, label %19

18:                                               ; preds = %12
  br label %21

19:                                               ; preds = %12
  call void (ptr, ...) @proto_report_dissector_bug(ptr noundef @.str.402, ptr noundef @.str.403, i32 noundef 612, ptr noundef @.str.405) #10
  unreachable

20:                                               ; No predecessors!
  br label %21

21:                                               ; preds = %20, %18
  %22 = load ptr, ptr %4, align 8
  call void @llvm.lifetime.end.p0(i64 8, ptr %4) #8
  call void @llvm.lifetime.end.p0(i64 8, ptr %3) #8
  ret ptr %22
}

; Function Attrs: null_pointer_is_valid sspstrong uwtable
define internal ptr @get_name_from_pmid(i32 noundef %0, ptr noundef %1) #0 {
  %3 = alloca i32, align 4
  %4 = alloca ptr, align 8
  %5 = alloca ptr, align 8
  %6 = alloca ptr, align 8
  store i32 %0, ptr %3, align 4
  store ptr %1, ptr %4, align 8
  call void @llvm.lifetime.start.p0(i64 8, ptr %5) #8
  call void @llvm.lifetime.start.p0(i64 8, ptr %6) #8
  %7 = load ptr, ptr %4, align 8
  %8 = call ptr @get_pcp_conversation_info(ptr noundef %7)
  %9 = getelementptr inbounds nuw %struct.pcp_conv_info_t, ptr %8, i32 0, i32 1
  %10 = load ptr, ptr %9, align 8
  store ptr %10, ptr %6, align 8
  %11 = load ptr, ptr %6, align 8
  %12 = load i32, ptr %3, align 4
  %13 = zext i32 %12 to i64
  %14 = inttoptr i64 %13 to ptr
  %15 = call ptr @wmem_map_lookup(ptr noundef %11, ptr noundef %14)
  store ptr %15, ptr %5, align 8
  %16 = load ptr, ptr %5, align 8
  %17 = icmp ne ptr %16, null
  br i1 %17, label %23, label %18

18:                                               ; preds = %2
  %19 = load ptr, ptr %4, align 8
  %20 = getelementptr inbounds nuw %struct._packet_info, ptr %19, i32 0, i32 51
  %21 = load ptr, ptr %20, align 8
  %22 = call noalias ptr @wmem_strdup(ptr noundef %21, ptr noundef @.str.412)
  store ptr %22, ptr %5, align 8
  br label %23

23:                                               ; preds = %18, %2
  %24 = load ptr, ptr %5, align 8
  call void @llvm.lifetime.end.p0(i64 8, ptr %6) #8
  call void @llvm.lifetime.end.p0(i64 8, ptr %5) #8
  ret ptr %24
}

; Function Attrs: null_pointer_is_valid sspstrong uwtable
define internal i32 @dissect_pcp_partial_pmid(ptr noundef %0, ptr noundef %1, ptr noundef %2, i32 noundef %3) #0 {
  %5 = alloca ptr, align 8
  %6 = alloca ptr, align 8
  %7 = alloca ptr, align 8
  %8 = alloca i32, align 4
  %9 = alloca ptr, align 8
  %10 = alloca ptr, align 8
  %11 = alloca i32, align 4
  %12 = alloca i32, align 4
  %13 = alloca ptr, align 8
  store ptr %0, ptr %5, align 8
  store ptr %1, ptr %6, align 8
  store ptr %2, ptr %7, align 8
  store i32 %3, ptr %8, align 4
  call void @llvm.lifetime.start.p0(i64 8, ptr %9) #8
  call void @llvm.lifetime.start.p0(i64 8, ptr %10) #8
  call void @llvm.lifetime.start.p0(i64 4, ptr %11) #8
  call void @llvm.lifetime.start.p0(i64 4, ptr %12) #8
  call void @llvm.lifetime.start.p0(i64 8, ptr %13) #8
  %14 = load i32, ptr %8, align 4
  %15 = mul i32 %14, 8
  store i32 %15, ptr %11, align 4
  %16 = load ptr, ptr %5, align 8
  %17 = load i32, ptr %8, align 4
  %18 = call i32 @tvb_get_ntohl(ptr noundef %16, i32 noundef %17)
  store i32 %18, ptr %12, align 4
  %19 = load i32, ptr %12, align 4
  %20 = load ptr, ptr %6, align 8
  %21 = call ptr @get_name_from_pmid(i32 noundef %19, ptr noundef %20)
  store ptr %21, ptr %13, align 8
  %22 = load ptr, ptr %7, align 8
  %23 = load i32, ptr @hf_pcp_pmid, align 4
  %24 = load ptr, ptr %5, align 8
  %25 = load i32, ptr %8, align 4
  %26 = call ptr @proto_tree_add_item(ptr noundef %22, i32 noundef %23, ptr noundef %24, i32 noundef %25, i32 noundef 4, i32 noundef 0)
  store ptr %26, ptr %9, align 8
  %27 = load ptr, ptr %9, align 8
  %28 = load ptr, ptr %13, align 8
  call void (ptr, ptr, ...) @proto_item_append_text(ptr noundef %27, ptr noundef @.str.411, ptr noundef %28)
  %29 = load ptr, ptr %9, align 8
  %30 = load i32, ptr @ett_pcp, align 4
  %31 = call ptr @proto_item_add_subtree(ptr noundef %29, i32 noundef %30)
  store ptr %31, ptr %10, align 8
  %32 = load ptr, ptr %10, align 8
  %33 = load i32, ptr @hf_pcp_pmid_flag, align 4
  %34 = load ptr, ptr %5, align 8
  %35 = load i32, ptr %11, align 4
  %36 = call ptr @proto_tree_add_bits_item(ptr noundef %32, i32 noundef %33, ptr noundef %34, i32 noundef %35, i32 noundef 1, i32 noundef 0)
  %37 = load i32, ptr %11, align 4
  %38 = add i32 %37, 1
  store i32 %38, ptr %11, align 4
  %39 = load ptr, ptr %10, align 8
  %40 = load i32, ptr @hf_pcp_pmid_domain, align 4
  %41 = load ptr, ptr %5, align 8
  %42 = load i32, ptr %11, align 4
  %43 = call ptr @proto_tree_add_bits_item(ptr noundef %39, i32 noundef %40, ptr noundef %41, i32 noundef %42, i32 noundef 9, i32 noundef 0)
  %44 = load i32, ptr %11, align 4
  %45 = add i32 %44, 9
  store i32 %45, ptr %11, align 4
  %46 = load ptr, ptr %10, align 8
  %47 = load i32, ptr @hf_pcp_pmid_cluster, align 4
  %48 = load ptr, ptr %5, align 8
  %49 = load i32, ptr %11, align 4
  %50 = call ptr @proto_tree_add_bits_item(ptr noundef %46, i32 noundef %47, ptr noundef %48, i32 noundef %49, i32 noundef 12, i32 noundef 0)
  %51 = load i32, ptr %11, align 4
  %52 = add i32 %51, 12
  store i32 %52, ptr %11, align 4
  %53 = load ptr, ptr %10, align 8
  %54 = load i32, ptr @hf_pcp_pmid_item, align 4
  %55 = load ptr, ptr %5, align 8
  %56 = load i32, ptr %11, align 4
  %57 = call ptr @proto_tree_add_bits_item(ptr noundef %53, i32 noundef %54, ptr noundef %55, i32 noundef %56, i32 noundef 10, i32 noundef 0)
  %58 = load i32, ptr %8, align 4
  %59 = add i32 %58, 4
  store i32 %59, ptr %8, align 4
  %60 = load i32, ptr %8, align 4
  call void @llvm.lifetime.end.p0(i64 8, ptr %13) #8
  call void @llvm.lifetime.end.p0(i64 4, ptr %12) #8
  call void @llvm.lifetime.end.p0(i64 4, ptr %11) #8
  call void @llvm.lifetime.end.p0(i64 8, ptr %10) #8
  call void @llvm.lifetime.end.p0(i64 8, ptr %9) #8
  ret i32 %60
}