; Function Attrs: null_pointer_is_valid sspstrong uwtable
define internal fastcc noundef i32 @dissect_pcp_partial_pmid(ptr noundef %0, ptr noundef %1, ptr noundef %2, i32 noundef %3) unnamed_addr #0 {
  %5 = tail call i32 @tvb_get_ntohl(ptr noundef %0, i32 noundef %3)
  %6 = tail call ptr @find_conversation_pinfo(ptr noundef %1, i32 noundef 0)
  %.not.i.i = icmp eq ptr %6, null
  br i1 %.not.i.i, label %7, label %8

7:                                                ; preds = %4
  tail call void (ptr, ...) @proto_report_dissector_bug(ptr noundef nonnull @.str.402, ptr noundef nonnull @.str.403, i32 noundef 607, ptr noundef nonnull @.str.404) #9
  unreachable

8:                                                ; preds = %4
  %9 = load i32, ptr @proto_pcp, align 4
  %10 = tail call ptr @conversation_get_proto_data(ptr noundef nonnull %6, i32 noundef %9)
  %.not6.i.i = icmp eq ptr %10, null
  br i1 %.not6.i.i, label %11, label %get_pcp_conversation_info.exit.i

11:                                               ; preds = %8
  tail call void (ptr, ...) @proto_report_dissector_bug(ptr noundef nonnull @.str.402, ptr noundef nonnull @.str.403, i32 noundef 612, ptr noundef nonnull @.str.405) #9
  unreachable

get_pcp_conversation_info.exit.i:                 ; preds = %8
  %12 = getelementptr inbounds nuw i8, ptr %10, i64 8
  %13 = load ptr, ptr %12, align 8
  %14 = zext i32 %5 to i64
  %15 = inttoptr i64 %14 to ptr
  %16 = tail call ptr @wmem_map_lookup(ptr noundef %13, ptr noundef %15)
  %.not.i = icmp eq ptr %16, null
  br i1 %.not.i, label %17, label %get_name_from_pmid.exit

17:                                               ; preds = %get_pcp_conversation_info.exit.i
  %18 = getelementptr inbounds nuw i8, ptr %1, i64 408
  %19 = load ptr, ptr %18, align 8
  %20 = tail call noalias ptr @wmem_strdup(ptr noundef %19, ptr noundef nonnull @.str.412)
  br label %get_name_from_pmid.exit

get_name_from_pmid.exit:                          ; preds = %get_pcp_conversation_info.exit.i, %17
  %.0.i = phi ptr [ %16, %get_pcp_conversation_info.exit.i ], [ %20, %17 ]
  %21 = shl i32 %3, 3
  %22 = load i32, ptr @hf_pcp_pmid, align 4
  %23 = tail call ptr @proto_tree_add_item(ptr noundef %2, i32 noundef %22, ptr noundef %0, i32 noundef %3, i32 noundef 4, i32 noundef 0)
  tail call void (ptr, ptr, ...) @proto_item_append_text(ptr noundef %23, ptr noundef nonnull @.str.411, ptr noundef %.0.i)
  %24 = load i32, ptr @ett_pcp, align 4
  %25 = tail call ptr @proto_item_add_subtree(ptr noundef %23, i32 noundef %24)
  %26 = load i32, ptr @hf_pcp_pmid_flag, align 4
  %27 = tail call ptr @proto_tree_add_bits_item(ptr noundef %25, i32 noundef %26, ptr noundef %0, i32 noundef %21, i32 noundef 1, i32 noundef 0)
  %28 = or disjoint i32 %21, 1
  %29 = load i32, ptr @hf_pcp_pmid_domain, align 4
  %30 = tail call ptr @proto_tree_add_bits_item(ptr noundef %25, i32 noundef %29, ptr noundef %0, i32 noundef %28, i32 noundef 9, i32 noundef 0)
  %31 = add i32 %21, 10
  %32 = load i32, ptr @hf_pcp_pmid_cluster, align 4
  %33 = tail call ptr @proto_tree_add_bits_item(ptr noundef %25, i32 noundef %32, ptr noundef %0, i32 noundef %31, i32 noundef 12, i32 noundef 0)
  %34 = add i32 %21, 22
  %35 = load i32, ptr @hf_pcp_pmid_item, align 4
  %36 = tail call ptr @proto_tree_add_bits_item(ptr noundef %25, i32 noundef %35, ptr noundef %0, i32 noundef %34, i32 noundef 10, i32 noundef 0)
  %37 = add i32 %3, 4
  ret i32 %37
}